target datalayout = "e-m:e-p270:32:32-p271:32:32-p272:64:64-i64:64-i128:128-f80:128-n8:16:32:64-S128"
target triple = "x86_64-pc-linux-gnu"

@.str.9 = private unnamed_addr constant [5 x i8] c"%5ld\00", align 1
@.str.10 = private unnamed_addr constant [6 x i8] c"%4ldk\00", align 1
@.str.11 = private unnamed_addr constant [11 x i8] c"%2ld.%0ldM\00", align 1
@.str.12 = private unnamed_addr constant [6 x i8] c"%4ldM\00", align 1
@.str.13 = private unnamed_addr constant [11 x i8] c"%2ld.%0ldG\00", align 1
@.str.14 = private unnamed_addr constant [6 x i8] c"%4ldG\00", align 1
@.str.15 = private unnamed_addr constant [6 x i8] c"%4ldT\00", align 1
@.str.16 = private unnamed_addr constant [6 x i8] c"%4ldP\00", align 1

; Function Attrs: nounwind uwtable
define internal ptr @max5data(i64 noundef %0, ptr noundef %1) #0 {
  %3 = alloca i64, align 8
  %4 = alloca ptr, align 8
  store i64 %0, ptr %3, align 8, !tbaa !86
  store ptr %1, ptr %4, align 8, !tbaa !130
  %5 = load i64, ptr %3, align 8, !tbaa !86
  %6 = icmp slt i64 %5, 100000
  br i1 %6, label %7, label %11

7:                                                ; preds = %2
  %8 = load ptr, ptr %4, align 8, !tbaa !130
  %9 = load i64, ptr %3, align 8, !tbaa !86
  %10 = call i32 (ptr, i64, ptr, ...) @curl_msnprintf(ptr noundef %8, i64 noundef 6, ptr noundef @.str.9, i64 noundef %9)
  br label %76

11:                                               ; preds = %2
  %12 = load i64, ptr %3, align 8, !tbaa !86
  %13 = icmp slt i64 %12, 10240000
  br i1 %13, label %14, label %19

14:                                               ; preds = %11
  %15 = load ptr, ptr %4, align 8, !tbaa !130
  %16 = load i64, ptr %3, align 8, !tbaa !86
  %17 = sdiv i64 %16, 1024
  %18 = call i32 (ptr, i64, ptr, ...) @curl_msnprintf(ptr noundef %15, i64 noundef 6, ptr noundef @.str.10, i64 noundef %17)
  br label %75

19:                                               ; preds = %11
  %20 = load i64, ptr %3, align 8, !tbaa !86
  %21 = icmp slt i64 %20, 104857600
  br i1 %21, label %22, label %30

22:                                               ; preds = %19
  %23 = load ptr, ptr %4, align 8, !tbaa !130
  %24 = load i64, ptr %3, align 8, !tbaa !86
  %25 = sdiv i64 %24, 1048576
  %26 = load i64, ptr %3, align 8, !tbaa !86
  %27 = srem i64 %26, 1048576
  %28 = sdiv i64 %27, 104857
  %29 = call i32 (ptr, i64, ptr, ...) @curl_msnprintf(ptr noundef %23, i64 noundef 6, ptr noundef @.str.11, i64 noundef %25, i64 noundef %28)
  br label %74

30:                                               ; preds = %19
  %31 = load i64, ptr %3, align 8, !tbaa !86
  %32 = icmp slt i64 %31, 10485760000
  br i1 %32, label %33, label %38

33:                                               ; preds = %30
  %34 = load ptr, ptr %4, align 8, !tbaa !130
  %35 = load i64, ptr %3, align 8, !tbaa !86
  %36 = sdiv i64 %35, 1048576
  %37 = call i32 (ptr, i64, ptr, ...) @curl_msnprintf(ptr noundef %34, i64 noundef 6, ptr noundef @.str.12, i64 noundef %36)
  br label %73

38:                                               ; preds = %30
  %39 = load i64, ptr %3, align 8, !tbaa !86
  %40 = icmp slt i64 %39, 107374182400
  br i1 %40, label %41, label %49

41:                                               ; preds = %38
  %42 = load ptr, ptr %4, align 8, !tbaa !130
  %43 = load i64, ptr %3, align 8, !tbaa !86
  %44 = sdiv i64 %43, 1073741824
  %45 = load i64, ptr %3, align 8, !tbaa !86
  %46 = srem i64 %45, 1073741824
  %47 = sdiv i64 %46, 107374182
  %48 = call i32 (ptr, i64, ptr, ...) @curl_msnprintf(ptr noundef %42, i64 noundef 6, ptr noundef @.str.13, i64 noundef %44, i64 noundef %47)
  br label %72

49:                                               ; preds = %38
  %50 = load i64, ptr %3, align 8, !tbaa !86
  %51 = icmp slt i64 %50, 10737418240000
  br i1 %51, label %52, label %57

52:                                               ; preds = %49
  %53 = load ptr, ptr %4, align 8, !tbaa !130
  %54 = load i64, ptr %3, align 8, !tbaa !86
  %55 = sdiv i64 %54, 1073741824
  %56 = call i32 (ptr, i64, ptr, ...) @curl_msnprintf(ptr noundef %53, i64 noundef 6, ptr noundef @.str.14, i64 noundef %55)
  br label %71

57:                                               ; preds = %49
  %58 = load i64, ptr %3, align 8, !tbaa !86
  %59 = icmp slt i64 %58, 10995116277760000
  br i1 %59, label %60, label %65

60:                                               ; preds = %57
  %61 = load ptr, ptr %4, align 8, !tbaa !130
  %62 = load i64, ptr %3, align 8, !tbaa !86
  %63 = sdiv i64 %62, 1099511627776
  %64 = call i32 (ptr, i64, ptr, ...) @curl_msnprintf(ptr noundef %61, i64 noundef 6, ptr noundef @.str.15, i64 noundef %63)
  br label %70

65:                                               ; preds = %57
  %66 = load ptr, ptr %4, align 8, !tbaa !130
  %67 = load i64, ptr %3, align 8, !tbaa !86
  %68 = sdiv i64 %67, 1125899906842624
  %69 = call i32 (ptr, i64, ptr, ...) @curl_msnprintf(ptr noundef %66, i64 noundef 6, ptr noundef @.str.16, i64 noundef %68)
  br label %70

70:                                               ; preds = %65, %60
  br label %71

71:                                               ; preds = %70, %52
  br label %72

72:                                               ; preds = %71, %41
  br label %73

73:                                               ; preds = %72, %33
  br label %74

74:                                               ; preds = %73, %22
  br label %75

75:                                               ; preds = %74, %14
  br label %76

76:                                               ; preds = %75, %7
  %77 = load ptr, ptr %4, align 8, !tbaa !130
  ret ptr %77
}